target datalayout = "e-m:e-p270:32:32-p271:32:32-p272:64:64-i64:64-i128:128-f80:128-n8:16:32:64-S128"
target triple = "x86_64-pc-linux-gnu"

; Function Attrs: nounwind uwtable
define internal i32 @compress_bidder_bid(ptr noundef %0, ptr noundef %1) #0 {
  %3 = alloca i32, align 4
  %4 = alloca ptr, align 8
  %5 = alloca ptr, align 8
  %6 = alloca ptr, align 8
  %7 = alloca i64, align 8
  %8 = alloca i32, align 4
  store ptr %0, ptr %4, align 8
  store ptr %1, ptr %5, align 8
  %9 = load ptr, ptr %5, align 8
  %10 = call ptr @__archive_read_filter_ahead(ptr noundef %9, i64 noundef 3, ptr noundef %7)
  store ptr %10, ptr %6, align 8
  %11 = load ptr, ptr %6, align 8
  %12 = icmp eq ptr %11, null
  br i1 %12, label %13, label %14

13:                                               ; preds = %2
  store i32 0, ptr %3, align 4
  br label %47

14:                                               ; preds = %2
  store i32 0, ptr %8, align 4
  %15 = load ptr, ptr %6, align 8
  %16 = getelementptr inbounds i8, ptr %15, i64 0
  %17 = load i8, ptr %16, align 1
  %18 = zext i8 %17 to i32
  %19 = icmp ne i32 %18, 31
  br i1 %19, label %26, label %20

20:                                               ; preds = %14
  %21 = load ptr, ptr %6, align 8
  %22 = getelementptr inbounds i8, ptr %21, i64 1
  %23 = load i8, ptr %22, align 1
  %24 = zext i8 %23 to i32
  %25 = icmp ne i32 %24, 157
  br i1 %25, label %26, label %27

26:                                               ; preds = %20, %14
  store i32 0, ptr %3, align 4
  br label %47

27:                                               ; preds = %20
  %28 = load ptr, ptr %6, align 8
  %29 = getelementptr inbounds i8, ptr %28, i64 2
  %30 = load i8, ptr %29, align 1
  %31 = zext i8 %30 to i32
  %32 = and i32 %31, 32
  %33 = icmp ne i32 %32, 0
  br i1 %33, label %34, label %35

34:                                               ; preds = %27
  store i32 0, ptr %3, align 4
  br label %47

35:                                               ; preds = %27
  %36 = load ptr, ptr %6, align 8
  %37 = getelementptr inbounds i8, ptr %36, i64 2
  %38 = load i8, ptr %37, align 1
  %39 = zext i8 %38 to i32
  %40 = and i32 %39, 64
  %41 = icmp ne i32 %40, 0
  br i1 %41, label %42, label %43

42:                                               ; preds = %35
  store i32 0, ptr %3, align 4
  br label %47

43:                                               ; preds = %35
  %44 = load i32, ptr %8, align 4
  %45 = add nsw i32 %44, 18
  store i32 %45, ptr %8, align 4
  %46 = load i32, ptr %8, align 4
  store i32 %46, ptr %3, align 4
  br label %47

47:                                               ; preds = %43, %42, %34, %26, %13
  %48 = load i32, ptr %3, align 4
  ret i32 %48
}