; Function Attrs: nounwind uwtable
define internal range(i32 0, 19) i32 @compress_bidder_bid(ptr readnone captures(none) %0, ptr noundef %1) #0 {
  %3 = alloca i64, align 8
  %4 = call ptr @__archive_read_filter_ahead(ptr noundef %1, i64 noundef 3, ptr noundef nonnull %3) #6
  %5 = icmp eq ptr %4, null
  br i1 %5, label %18, label %6

6:                                                ; preds = %2
  %7 = load i8, ptr %4, align 1
  %.not = icmp eq i8 %7, 31
  br i1 %.not, label %8, label %18

8:                                                ; preds = %6
  %9 = getelementptr inbounds nuw i8, ptr %4, i64 1
  %10 = load i8, ptr %9, align 1
  %.not9 = icmp eq i8 %10, -99
  br i1 %.not9, label %11, label %18

11:                                               ; preds = %8
  %12 = getelementptr inbounds nuw i8, ptr %4, i64 2
  %13 = load i8, ptr %12, align 1
  %14 = zext i8 %13 to i32
  %15 = and i32 %14, 32
  %.not10 = icmp eq i32 %15, 0
  br i1 %.not10, label %16, label %18

16:                                               ; preds = %11
  %17 = and i32 %14, 64
  %.not11 = icmp eq i32 %17, 0
  %. = select i1 %.not11, i32 18, i32 0
  br label %18

18:                                               ; preds = %16, %11, %6, %8, %2
  %.0 = phi i32 [ 0, %2 ], [ 0, %8 ], [ 0, %6 ], [ 0, %11 ], [ %., %16 ]
  ret i32 %.0
}